target datalayout = "e-m:e-p270:32:32-p271:32:32-p272:64:64-i64:64-i128:128-f80:128-n8:16:32:64-S128"
target triple = "x86_64-pc-linux-gnu"

%"class.icu_77::SharedDateFormatSymbols" = type { %"class.icu_77::SharedObject", %"class.icu_77::DateFormatSymbols" }
%"class.icu_77::SharedObject" = type { %"class.icu_77::UObject", i32, %"struct.std::atomic", ptr }
%"class.icu_77::UObject" = type { ptr }
%"struct.std::atomic" = type { %"struct.std::__atomic_base" }
%"struct.std::__atomic_base" = type { i32 }
%"class.icu_77::DateFormatSymbols" = type { %"class.icu_77::UObject", ptr, i32, ptr, i32, ptr, i32, ptr, i32, ptr, i32, ptr, i32, ptr, i32, ptr, i32, ptr, i32, ptr, i32, ptr, i32, ptr, i32, ptr, i32, ptr, i32, ptr, i32, ptr, i32, ptr, i32, ptr, i32, ptr, i32, %"class.icu_77::UnicodeString", ptr, i32, ptr, i32, ptr, i32, ptr, i32, ptr, i32, ptr, i32, ptr, i32, ptr, i32, ptr, i32, ptr, ptr, i32, i32, %"class.icu_77::Locale", %"class.icu_77::UnicodeString", [14 x [2 x i8]], ptr, i32, ptr, i32, ptr, i32, ptr, i32, ptr, i32, ptr, i32, ptr, ptr }
%"class.icu_77::Locale" = type <{ %"class.icu_77::UObject", [12 x i8], [6 x i8], [4 x i8], [2 x i8], i32, [4 x i8], ptr, [157 x i8], [3 x i8], ptr, i8, [7 x i8] }>
%"class.icu_77::UnicodeString" = type { %"class.icu_77::Replaceable", %"union.icu_77::UnicodeString::StackBufferOrFields" }
%"class.icu_77::Replaceable" = type { %"class.icu_77::UObject" }
%"union.icu_77::UnicodeString::StackBufferOrFields" = type { %struct.anon.0, [32 x i8] }
%struct.anon.0 = type { i16, i32, i32, ptr }
%"class.icu_77::LocaleCacheKey" = type { %"class.icu_77::CacheKey.base", [3 x i8], %"class.icu_77::Locale" }
%"class.icu_77::CacheKey.base" = type { %"class.icu_77::CacheKeyBase.base" }
%"class.icu_77::CacheKeyBase.base" = type <{ %"class.icu_77::UObject", i32, i8 }>

@_ZTVN6icu_7723SharedDateFormatSymbolsE = unnamed_addr constant { [5 x ptr] } { [5 x ptr] [ptr null, ptr @_ZTIN6icu_7723SharedDateFormatSymbolsE, ptr @_ZN6icu_7723SharedDateFormatSymbolsD1Ev, ptr @_ZN6icu_7723SharedDateFormatSymbolsD0Ev, ptr @_ZNK6icu_777UObject17getDynamicClassIDEv] }, align 8
@_ZTVN6icu_7712SharedObjectE = available_externally unnamed_addr constant { [5 x ptr] } { [5 x ptr] [ptr null, ptr @_ZTIN6icu_7712SharedObjectE, ptr @_ZN6icu_7712SharedObjectD1Ev, ptr @_ZN6icu_7712SharedObjectD0Ev, ptr @_ZNK6icu_777UObject17getDynamicClassIDEv] }, align 8
@_ZTVN6icu_777UObjectE = available_externally unnamed_addr constant { [5 x ptr] } { [5 x ptr] [ptr null, ptr @_ZTIN6icu_777UObjectE, ptr @_ZN6icu_777UObjectD1Ev, ptr @_ZN6icu_777UObjectD0Ev, ptr @_ZNK6icu_777UObject17getDynamicClassIDEv] }, align 8
@_ZN6icu_7717DateFormatSymbolsC1ERKNS_6LocaleEPKcR10UErrorCode = unnamed_addr alias void (ptr, ptr, ptr, ptr), ptr @_ZN6icu_7717DateFormatSymbolsC2ERKNS_6LocaleEPKcR10UErrorCode

; Function Attrs: mustprogress nounwind uwtable
define linkonce_odr void @_ZNSt13__atomic_baseIiEC2Ei(ptr noundef nonnull align 4 dereferenceable(4) %0, i32 noundef %1) unnamed_addr #0 comdat align 2 {
  %3 = alloca ptr, align 8
  %4 = alloca i32, align 4
  store ptr %0, ptr %3, align 8, !tbaa !215
  store i32 %1, ptr %4, align 4, !tbaa !14
  %5 = load ptr, ptr %3, align 8
  %6 = getelementptr inbounds nuw %"struct.std::__atomic_base", ptr %5, i32 0, i32 0
  %7 = load i32, ptr %4, align 4, !tbaa !14
  store i32 %7, ptr %6, align 4, !tbaa !217
  ret void
}

; Function Attrs: mustprogress nounwind uwtable
define linkonce_odr void @_ZNSt6atomicIiEC2Ei(ptr noundef nonnull align 4 dereferenceable(4) %0, i32 noundef %1) unnamed_addr #0 comdat align 2 {
  %3 = alloca ptr, align 8
  %4 = alloca i32, align 4
  store ptr %0, ptr %3, align 8, !tbaa !213
  store i32 %1, ptr %4, align 4, !tbaa !14
  %5 = load ptr, ptr %3, align 8
  %6 = load i32, ptr %4, align 4, !tbaa !14
  call void @_ZNSt13__atomic_baseIiEC2Ei(ptr noundef nonnull align 4 dereferenceable(4) %5, i32 noundef %6) #14
  ret void
}

; Function Attrs: inlinehint mustprogress nounwind uwtable
define linkonce_odr void @_ZN6icu_777UObjectC2Ev(ptr noundef nonnull align 8 dereferenceable(8) %0) unnamed_addr #2 comdat align 2 {
  %2 = alloca ptr, align 8
  store ptr %0, ptr %2, align 8, !tbaa !48
  %3 = load ptr, ptr %2, align 8
  store ptr getelementptr inbounds inrange(-16, 24) ({ [5 x ptr] }, ptr @_ZTVN6icu_777UObjectE, i32 0, i32 0, i32 2), ptr %3, align 8, !tbaa !25
  ret void
}

; Function Attrs: mustprogress nounwind uwtable
define linkonce_odr void @_ZN6icu_7712SharedObjectC2Ev(ptr noundef nonnull align 8 dereferenceable(24) %0) unnamed_addr #0 comdat align 2 {
  %2 = alloca ptr, align 8
  store ptr %0, ptr %2, align 8, !tbaa !205
  %3 = load ptr, ptr %2, align 8
  call void @_ZN6icu_777UObjectC2Ev(ptr noundef nonnull align 8 dereferenceable(8) %3) #14
  store ptr getelementptr inbounds inrange(-16, 24) ({ [5 x ptr] }, ptr @_ZTVN6icu_7712SharedObjectE, i32 0, i32 0, i32 2), ptr %3, align 8, !tbaa !25
  %4 = getelementptr inbounds nuw %"class.icu_77::SharedObject", ptr %3, i32 0, i32 1
  store i32 0, ptr %4, align 8, !tbaa !207
  %5 = getelementptr inbounds nuw %"class.icu_77::SharedObject", ptr %3, i32 0, i32 2
  call void @_ZNSt6atomicIiEC2Ei(ptr noundef nonnull align 4 dereferenceable(4) %5, i32 noundef 0) #14
  %6 = getelementptr inbounds nuw %"class.icu_77::SharedObject", ptr %3, i32 0, i32 3
  store ptr null, ptr %6, align 8, !tbaa !212
  ret void
}

; Function Attrs: mustprogress uwtable
define linkonce_odr void @_ZN6icu_7723SharedDateFormatSymbolsC2ERKNS_6LocaleEPKcR10UErrorCode(ptr noundef nonnull align 8 dereferenceable(1000) %0, ptr noundef nonnull align 8 dereferenceable(217) %1, ptr noundef %2, ptr noundef nonnull align 4 dereferenceable(4) %3) unnamed_addr #1 comdat align 2 personality ptr @__gxx_personality_v0 {
  %5 = alloca ptr, align 8
  %6 = alloca ptr, align 8
  %7 = alloca ptr, align 8
  %8 = alloca ptr, align 8
  %9 = alloca ptr, align 8
  %10 = alloca i32, align 4
  store ptr %0, ptr %5, align 8, !tbaa !23
  store ptr %1, ptr %6, align 8, !tbaa !29
  store ptr %2, ptr %7, align 8, !tbaa !17
  store ptr %3, ptr %8, align 8, !tbaa !22
  %11 = load ptr, ptr %5, align 8
  call void @_ZN6icu_7712SharedObjectC2Ev(ptr noundef nonnull align 8 dereferenceable(24) %11)
  store ptr getelementptr inbounds inrange(-16, 24) ({ [5 x ptr] }, ptr @_ZTVN6icu_7723SharedDateFormatSymbolsE, i32 0, i32 0, i32 2), ptr %11, align 8, !tbaa !25
  %12 = getelementptr inbounds nuw %"class.icu_77::SharedDateFormatSymbols", ptr %11, i32 0, i32 1
  %13 = load ptr, ptr %6, align 8, !tbaa !29
  %14 = load ptr, ptr %7, align 8, !tbaa !17
  %15 = load ptr, ptr %8, align 8, !tbaa !22
  invoke void @_ZN6icu_7717DateFormatSymbolsC1ERKNS_6LocaleEPKcR10UErrorCode(ptr noundef nonnull align 8 dereferenceable(976) %12, ptr noundef nonnull align 8 dereferenceable(217) %13, ptr noundef %14, ptr noundef nonnull align 4 dereferenceable(4) %15)
          to label %16 unwind label %17

16:                                               ; preds = %4
  ret void

17:                                               ; preds = %4
  %18 = landingpad { ptr, i32 }
          cleanup
  %19 = extractvalue { ptr, i32 } %18, 0
  store ptr %19, ptr %9, align 8
  %20 = extractvalue { ptr, i32 } %18, 1
  store i32 %20, ptr %10, align 4
  call void @_ZN6icu_7712SharedObjectD2Ev(ptr noundef nonnull align 8 dereferenceable(24) %11) #14
  br label %21

21:                                               ; preds = %17
  %22 = load ptr, ptr %9, align 8
  %23 = load i32, ptr %10, align 4
  %24 = insertvalue { ptr, i32 } poison, ptr %22, 0
  %25 = insertvalue { ptr, i32 } %24, i32 %23, 1
  resume { ptr, i32 } %25
}

; Function Attrs: inlinehint mustprogress nounwind uwtable
define internal noundef signext i8 @_ZL9U_FAILURE10UErrorCode(i32 noundef %0) #2 {
  %2 = alloca i32, align 4
  store i32 %0, ptr %2, align 4, !tbaa !15
  %3 = load i32, ptr %2, align 4, !tbaa !15
  %4 = icmp sgt i32 %3, 0
  %5 = zext i1 %4 to i8
  ret i8 %5
}

; Function Attrs: mustprogress uwtable
define noundef ptr @_ZNK6icu_7714LocaleCacheKeyINS_23SharedDateFormatSymbolsEE12createObjectEPKvR10UErrorCode(ptr noundef nonnull align 8 dereferenceable(240) %0, ptr noundef %1, ptr noundef nonnull align 4 dereferenceable(4) %2) unnamed_addr #1 align 2 personality ptr @__gxx_personality_v0 {
  %4 = alloca ptr, align 8
  %5 = alloca ptr, align 8
  %6 = alloca ptr, align 8
  %7 = alloca ptr, align 8
  %8 = alloca [256 x i8], align 16
  %9 = alloca i32, align 4
  %10 = alloca ptr, align 8
  %11 = alloca ptr, align 8
  %12 = alloca i1, align 1
  %13 = alloca ptr, align 8
  %14 = alloca i32, align 4
  store ptr %0, ptr %5, align 8, !tbaa !27
  store ptr %1, ptr %6, align 8, !tbaa !22
  store ptr %2, ptr %7, align 8, !tbaa !22
  %15 = load ptr, ptr %5, align 8
  call void @llvm.lifetime.start.p0(i64 256, ptr %8) #14
  %16 = getelementptr inbounds nuw %"class.icu_77::LocaleCacheKey", ptr %15, i32 0, i32 2
  %17 = getelementptr inbounds [256 x i8], ptr %8, i64 0, i64 0
  %18 = load ptr, ptr %7, align 8, !tbaa !22
  call void @_ZN6icu_778Calendar25getCalendarTypeFromLocaleERKNS_6LocaleEPciR10UErrorCode(ptr noundef nonnull align 8 dereferenceable(217) %16, ptr noundef %17, i32 noundef 256, ptr noundef nonnull align 4 dereferenceable(4) %18)
  %19 = load ptr, ptr %7, align 8, !tbaa !22
  %20 = load i32, ptr %19, align 4, !tbaa !15
  %21 = call noundef signext i8 @_ZL9U_FAILURE10UErrorCode(i32 noundef %20)
  %22 = icmp ne i8 %21, 0
  br i1 %22, label %23, label %24

23:                                               ; preds = %3
  store ptr null, ptr %4, align 8
  store i32 1, ptr %9, align 4
  br label %63

24:                                               ; preds = %3
  call void @llvm.lifetime.start.p0(i64 8, ptr %10) #14
  %25 = call noundef ptr @_ZN6icu_777UMemorynwEm(i64 noundef 1000) #14
  %26 = icmp eq ptr %25, null
  store i1 false, ptr %12, align 1
  br i1 %26, label %32, label %27

27:                                               ; preds = %24
  store ptr %25, ptr %11, align 8
  store i1 true, ptr %12, align 1
  %28 = getelementptr inbounds nuw %"class.icu_77::LocaleCacheKey", ptr %15, i32 0, i32 2
  %29 = getelementptr inbounds [256 x i8], ptr %8, i64 0, i64 0
  %30 = load ptr, ptr %7, align 8, !tbaa !22
  invoke void @_ZN6icu_7723SharedDateFormatSymbolsC2ERKNS_6LocaleEPKcR10UErrorCode(ptr noundef nonnull align 8 dereferenceable(1000) %25, ptr noundef nonnull align 8 dereferenceable(217) %28, ptr noundef %29, ptr noundef nonnull align 4 dereferenceable(4) %30)
          to label %31 unwind label %38

31:                                               ; preds = %27
  br label %32

32:                                               ; preds = %31, %24
  %33 = phi ptr [ %25, %31 ], [ null, %24 ]
  store ptr %33, ptr %10, align 8, !tbaa !23
  %34 = load ptr, ptr %10, align 8, !tbaa !23
  %35 = icmp eq ptr %34, null
  br i1 %35, label %36, label %46

36:                                               ; preds = %32
  %37 = load ptr, ptr %7, align 8, !tbaa !22
  store i32 7, ptr %37, align 4, !tbaa !15
  store ptr null, ptr %4, align 8
  store i32 1, ptr %9, align 4
  br label %62

38:                                               ; preds = %27
  %39 = landingpad { ptr, i32 }
          cleanup
  %40 = extractvalue { ptr, i32 } %39, 0
  store ptr %40, ptr %13, align 8
  %41 = extractvalue { ptr, i32 } %39, 1
  store i32 %41, ptr %14, align 4
  %42 = load i1, ptr %12, align 1
  br i1 %42, label %43, label %45

43:                                               ; preds = %38
  %44 = load ptr, ptr %11, align 8
  call void @_ZN6icu_777UMemorydlEPv(ptr noundef %44) #14
  br label %45

45:                                               ; preds = %43, %38
  call void @llvm.lifetime.end.p0(i64 8, ptr %10) #14
  call void @llvm.lifetime.end.p0(i64 256, ptr %8) #14
  br label %65

46:                                               ; preds = %32
  %47 = load ptr, ptr %7, align 8, !tbaa !22
  %48 = load i32, ptr %47, align 4, !tbaa !15
  %49 = call noundef signext i8 @_ZL9U_FAILURE10UErrorCode(i32 noundef %48)
  %50 = icmp ne i8 %49, 0
  br i1 %50, label %51, label %59

51:                                               ; preds = %46
  %52 = load ptr, ptr %10, align 8, !tbaa !23
  %53 = icmp eq ptr %52, null
  br i1 %53, label %58, label %54

54:                                               ; preds = %51
  %55 = load ptr, ptr %52, align 8, !tbaa !25
  %56 = getelementptr inbounds ptr, ptr %55, i64 1
  %57 = load ptr, ptr %56, align 8
  call void %57(ptr noundef nonnull align 8 dereferenceable(1000) %52) #14
  br label %58

58:                                               ; preds = %54, %51
  store ptr null, ptr %4, align 8
  store i32 1, ptr %9, align 4
  br label %62

59:                                               ; preds = %46
  %60 = load ptr, ptr %10, align 8, !tbaa !23
  call void @_ZNK6icu_7712SharedObject6addRefEv(ptr noundef nonnull align 8 dereferenceable(24) %60)
  %61 = load ptr, ptr %10, align 8, !tbaa !23
  store ptr %61, ptr %4, align 8
  store i32 1, ptr %9, align 4
  br label %62

62:                                               ; preds = %59, %58, %36
  call void @llvm.lifetime.end.p0(i64 8, ptr %10) #14
  br label %63

63:                                               ; preds = %62, %23
  call void @llvm.lifetime.end.p0(i64 256, ptr %8) #14
  %64 = load ptr, ptr %4, align 8
  ret ptr %64

65:                                               ; preds = %45
  %66 = load ptr, ptr %13, align 8
  %67 = load i32, ptr %14, align 4
  %68 = insertvalue { ptr, i32 } poison, ptr %66, 0
  %69 = insertvalue { ptr, i32 } %68, i32 %67, 1
  resume { ptr, i32 } %69
}