; Function Attrs: mustprogress uwtable
define noundef ptr @_ZNK6icu_7714LocaleCacheKeyINS_23SharedDateFormatSymbolsEE12createObjectEPKvR10UErrorCode(ptr noundef nonnull align 8 dereferenceable(240) %0, ptr readnone captures(none) %1, ptr noundef nonnull align 4 dereferenceable(4) %2) unnamed_addr #1 align 2 personality ptr @__gxx_personality_v0 {
  %4 = alloca [256 x i8], align 16
  call void @llvm.lifetime.start.p0(i64 256, ptr nonnull %4) #19
  %5 = getelementptr inbounds nuw i8, ptr %0, i64 16
  call void @_ZN6icu_778Calendar25getCalendarTypeFromLocaleERKNS_6LocaleEPciR10UErrorCode(ptr noundef nonnull align 8 dereferenceable(217) %5, ptr noundef nonnull %4, i32 noundef 256, ptr noundef nonnull align 4 dereferenceable(4) %2)
  %6 = load i32, ptr %2, align 4, !tbaa !13
  %7 = icmp slt i32 %6, 1
  br i1 %7, label %8, label %23

8:                                                ; preds = %3
  %9 = call noundef ptr @_ZN6icu_777UMemorynwEm(i64 noundef 1000) #19
  %10 = icmp eq ptr %9, null
  br i1 %10, label %15, label %11

11:                                               ; preds = %8
  %12 = getelementptr inbounds nuw i8, ptr %9, i64 8
  call void @llvm.memset.p0.i64(ptr noundef nonnull align 8 dereferenceable(16) %12, i8 0, i64 16, i1 false)
  store ptr getelementptr inbounds nuw inrange(-16, 24) (i8, ptr @_ZTVN6icu_7723SharedDateFormatSymbolsE, i64 16), ptr %9, align 8, !tbaa !15
  %13 = getelementptr inbounds nuw i8, ptr %9, i64 24
  invoke void @_ZN6icu_7717DateFormatSymbolsC1ERKNS_6LocaleEPKcR10UErrorCode(ptr noundef nonnull align 8 dereferenceable(976) %13, ptr noundef nonnull align 8 dereferenceable(217) %5, ptr noundef nonnull %4, ptr noundef nonnull align 4 dereferenceable(4) %2)
          to label %_ZN6icu_7723SharedDateFormatSymbolsC2ERKNS_6LocaleEPKcR10UErrorCode.exit unwind label %.body

.body:                                            ; preds = %11
  %14 = landingpad { ptr, i32 }
          cleanup
  call void @_ZN6icu_7712SharedObjectD2Ev(ptr noundef nonnull align 8 dereferenceable(1000) %9) #19
  call void @_ZN6icu_777UMemorydlEPv(ptr noundef nonnull %9) #19
  call void @llvm.lifetime.end.p0(i64 256, ptr nonnull %4) #19
  resume { ptr, i32 } %14

15:                                               ; preds = %8
  store i32 7, ptr %2, align 4, !tbaa !13
  br label %23

_ZN6icu_7723SharedDateFormatSymbolsC2ERKNS_6LocaleEPKcR10UErrorCode.exit: ; preds = %11
  %16 = load i32, ptr %2, align 4, !tbaa !13
  %17 = icmp slt i32 %16, 1
  br i1 %17, label %22, label %18

18:                                               ; preds = %_ZN6icu_7723SharedDateFormatSymbolsC2ERKNS_6LocaleEPKcR10UErrorCode.exit
  %19 = load ptr, ptr %9, align 8, !tbaa !15
  %20 = getelementptr inbounds nuw i8, ptr %19, i64 8
  %21 = load ptr, ptr %20, align 8
  call void %21(ptr noundef nonnull align 8 dereferenceable(1000) %9) #19
  br label %23

22:                                               ; preds = %_ZN6icu_7723SharedDateFormatSymbolsC2ERKNS_6LocaleEPKcR10UErrorCode.exit
  call void @_ZNK6icu_7712SharedObject6addRefEv(ptr noundef nonnull align 8 dereferenceable(24) %9)
  br label %23

23:                                               ; preds = %15, %18, %22, %3
  %.0 = phi ptr [ null, %3 ], [ null, %15 ], [ null, %18 ], [ %9, %22 ]
  call void @llvm.lifetime.end.p0(i64 256, ptr nonnull %4) #19
  ret ptr %.0
}